target datalayout = "e-m:e-p270:32:32-p271:32:32-p272:64:64-i64:64-i128:128-f80:128-n8:16:32:64-S128"
target triple = "x86_64-pc-linux-gnu"

@.str.1 = private unnamed_addr constant [9 x i8] c"%d = %X\0A\00", align 1
@s_Truths6 = internal global [6 x i64] [i64 -6148914691236517206, i64 -3689348814741910324, i64 -1085102592571150096, i64 -71777214294589696, i64 -281470681808896, i64 -4294967296], align 16

; Function Attrs: inlinehint nounwind uwtable
define internal i64 @Abc_Tt6Flip(i64 noundef %0, i32 noundef %1) #3 {
  %3 = alloca i64, align 8
  %4 = alloca i32, align 4
  store i64 %0, ptr %3, align 8, !tbaa !7
  store i32 %1, ptr %4, align 4, !tbaa !3
  %5 = load i64, ptr %3, align 8, !tbaa !7
  %6 = load i32, ptr %4, align 4, !tbaa !3
  %7 = shl i32 1, %6
  %8 = zext i32 %7 to i64
  %9 = shl i64 %5, %8
  %10 = load i32, ptr %4, align 4, !tbaa !3
  %11 = sext i32 %10 to i64
  %12 = getelementptr inbounds [6 x i64], ptr @s_Truths6, i64 0, i64 %11
  %13 = load i64, ptr %12, align 8, !tbaa !7
  %14 = and i64 %9, %13
  %15 = load i64, ptr %3, align 8, !tbaa !7
  %16 = load i32, ptr %4, align 4, !tbaa !3
  %17 = sext i32 %16 to i64
  %18 = getelementptr inbounds [6 x i64], ptr @s_Truths6, i64 0, i64 %17
  %19 = load i64, ptr %18, align 8, !tbaa !7
  %20 = and i64 %15, %19
  %21 = load i32, ptr %4, align 4, !tbaa !3
  %22 = shl i32 1, %21
  %23 = zext i32 %22 to i64
  %24 = lshr i64 %20, %23
  %25 = or i64 %14, %24
  store i64 %25, ptr %3, align 8, !tbaa !7
  ret i64 %25
}

; Function Attrs: nounwind uwtable
define void @Ree_TruthPrecompute2() #0 {
  %1 = alloca i32, align 4
  %2 = alloca i32, align 4
  %3 = alloca i64, align 8
  call void @llvm.lifetime.start.p0(i64 4, ptr %1) #12
  call void @llvm.lifetime.start.p0(i64 4, ptr %2) #12
  store i32 0, ptr %1, align 4, !tbaa !3
  br label %4

4:                                                ; preds = %31, %0
  %5 = load i32, ptr %1, align 4, !tbaa !3
  %6 = icmp slt i32 %5, 8
  br i1 %6, label %7, label %34

7:                                                ; preds = %4
  call void @llvm.lifetime.start.p0(i64 8, ptr %3) #12
  store i64 232, ptr %3, align 8, !tbaa !7
  store i32 0, ptr %2, align 4, !tbaa !3
  br label %8

8:                                                ; preds = %22, %7
  %9 = load i32, ptr %2, align 4, !tbaa !3
  %10 = icmp slt i32 %9, 3
  br i1 %10, label %11, label %25

11:                                               ; preds = %8
  %12 = load i32, ptr %1, align 4, !tbaa !3
  %13 = load i32, ptr %2, align 4, !tbaa !3
  %14 = ashr i32 %12, %13
  %15 = and i32 %14, 1
  %16 = icmp ne i32 %15, 0
  br i1 %16, label %17, label %21

17:                                               ; preds = %11
  %18 = load i64, ptr %3, align 8, !tbaa !7
  %19 = load i32, ptr %2, align 4, !tbaa !3
  %20 = call i64 @Abc_Tt6Flip(i64 noundef %18, i32 noundef %19)
  store i64 %20, ptr %3, align 8, !tbaa !7
  br label %21

21:                                               ; preds = %17, %11
  br label %22

22:                                               ; preds = %21
  %23 = load i32, ptr %2, align 4, !tbaa !3
  %24 = add nsw i32 %23, 1
  store i32 %24, ptr %2, align 4, !tbaa !3
  br label %8, !llvm.loop !19

25:                                               ; preds = %8
  %26 = load i32, ptr %1, align 4, !tbaa !3
  %27 = load i64, ptr %3, align 8, !tbaa !7
  %28 = trunc i64 %27 to i32
  %29 = and i32 255, %28
  %30 = call i32 (ptr, ...) @printf(ptr noundef @.str.1, i32 noundef %26, i32 noundef %29)
  call void @llvm.lifetime.end.p0(i64 8, ptr %3) #12
  br label %31

31:                                               ; preds = %25
  %32 = load i32, ptr %1, align 4, !tbaa !3
  %33 = add nsw i32 %32, 1
  store i32 %33, ptr %1, align 4, !tbaa !3
  br label %4, !llvm.loop !20

34:                                               ; preds = %4
  call void @llvm.lifetime.end.p0(i64 4, ptr %2) #12
  call void @llvm.lifetime.end.p0(i64 4, ptr %1) #12
  ret void
}