; Function Attrs: nofree nounwind uwtable
define void @Ree_TruthPrecompute2() local_unnamed_addr #0 {
  br label %.preheader

.preheader:                                       ; preds = %0, %15
  %.01114 = phi i32 [ 0, %0 ], [ %19, %15 ]
  br label %1

1:                                                ; preds = %.preheader, %14
  %indvars.iv = phi i64 [ 0, %.preheader ], [ %indvars.iv.next, %14 ]
  %.013 = phi i64 [ 232, %.preheader ], [ %.1, %14 ]
  %2 = trunc nuw nsw i64 %indvars.iv to i32
  %3 = shl nuw nsw i32 1, %2
  %4 = and i32 %3, %.01114
  %.not = icmp eq i32 %4, 0
  br i1 %.not, label %14, label %5

5:                                                ; preds = %1
  %6 = zext nneg i32 %3 to i64
  %7 = shl i64 %.013, %6
  %8 = getelementptr inbounds nuw [6 x i64], ptr @s_Truths6, i64 0, i64 %indvars.iv
  %9 = load i64, ptr %8, align 8, !tbaa !3
  %10 = and i64 %9, %7
  %11 = and i64 %9, %.013
  %12 = lshr i64 %11, %6
  %13 = or i64 %12, %10
  br label %14

14:                                               ; preds = %1, %5
  %.1 = phi i64 [ %13, %5 ], [ %.013, %1 ]
  %indvars.iv.next = add nuw nsw i64 %indvars.iv, 1
  %exitcond.not = icmp eq i64 %indvars.iv.next, 3
  br i1 %exitcond.not, label %15, label %1, !llvm.loop !15

15:                                               ; preds = %14
  %16 = trunc i64 %.1 to i32
  %17 = and i32 %16, 255
  %18 = tail call i32 (ptr, ...) @printf(ptr noundef nonnull dereferenceable(1) @.str.1, i32 noundef %.01114, i32 noundef %17)
  %19 = add nuw nsw i32 %.01114, 1
  %exitcond16.not = icmp eq i32 %19, 8
  br i1 %exitcond16.not, label %20, label %.preheader, !llvm.loop !16

20:                                               ; preds = %15
  ret void
}